(dp1
S'output'
p2
S"<type 'exceptions.NameError'> global name 'form' is not defined"
p3
sS'layer'
p4
S'/home/irfan/wep2py/applications/welcome/controllers/default.py'
p5
sS'code'
p6
S'# -*- coding: utf-8 -*-\n# this file is released under public domain and you can use without limitations\n\n#########################################################################\n## This is a sample controller\n## - index is the default action of any application\n## - user is required for authentication and authorization\n## - download is for downloading files uploaded in the db (does streaming)\n## - call exposes all registered services (none by default)\n#########################################################################\nresponse.title=\'WEP2PY HO\xc5\x9eGELD\xc4\xb0N\xc4\xb0Z\'\nimport time\nimport random\ndef index():\n    """\n    example action using the internationalization operator T and flash\n    rendered by views/default/index.html or views/generic.html\n\n    if you need a simple wiki simply replace the two lines below with:\n    return auth.wiki()\n    """\n    response.flash = T("Welcome to web2py!")\n    return {\'message\':\'Merhaba D\xc3\xbcnya\'}\n\ndef irfan():\n    veri={}\n    erisim=time.ctime()\n    rast=random.random();\n    veri[\'erisim\']=erisim\n    veri[\'rast\']=rast\n    veri[\'ad\']=\'\xc4\xb0rfan\'\n\n    """ Form Olu\xc5\x9fturma i\xc5\x9flemleri yap\xc4\xb1l\xc4\xb1yor."""\n\n    veri[\'form\']=FORM(\'Ad\xc4\xb1:\', INPUT(_name="adi"),\n                     \'Soyad\xc4\xb1:\', INPUT(_name=\'soyadi\', requires=IS_NOT_EMPTY()), #Text dosyas\xc4\xb1 olu\xc5\x9fturma\n                      SELECT(\'Artvin\',\'Sinop\',\'Samsun\', _name=\'il\'), #A\xc3\xa7\xc4\xb1l\xc4\xb1r list olu\xc5\x9fturma\n                     INPUT(_type=\'submit\',\n                           _value=\'Soruyu G\xc3\xb6nder\')\n                      )\n# Gelen veri dolumu bo\xc5\x9fmu kontrol etmek i\xc3\xa7in amele i\xc5\x9fi\n#    if request.vars:\n#       if request.vars.soyadi:\n#            response.flash = "Sen Bu \xc4\xb0\xc5\x9fi Biliyorsun"\n#        else:\n#            response.flash ="Etmaaaa \xc5\x9eans"\n\n    if form.process().accepted:\n        response.flash=\'sen bu i\xc5\x9fi biliyorsun karde\xc5\x9fim.\'\n    else:\n        response.flash=\'Bir yanl\xc4\xb1\xc5\x9fl\xc4\xb1k var herhalde!!!\'\n\n    return veri\n\ndef user():\n    """\n    exposes:\n    http://..../[app]/default/user/login\n    http://..../[app]/default/user/logout\n    http://..../[app]/default/user/register\n    http://..../[app]/default/user/profile\n    http://..../[app]/default/user/retrieve_password\n    http://..../[app]/default/user/change_password\n    http://..../[app]/default/user/manage_users (requires membership in\n    use @auth.requires_login()\n        @auth.requires_membership(\'group name\')\n        @auth.requires_permission(\'read\',\'table name\',record_id)\n    to decorate functions that need access control\n    """\n    return dict(form=auth())\n\n@cache.action()\ndef download():\n    """\n    allows downloading of uploaded files\n    http://..../[app]/default/download/[filename]\n    """\n    return response.download(request, db)\n\n\ndef call():\n    """\n    exposes services. for example:\n    http://..../[app]/default/call/jsonrpc\n    decorate with @services.jsonrpc the functions to expose\n    supports xml, json, xmlrpc, jsonrpc, amfrpc, rss, csv\n    """\n    return service()\n\n\n@auth.requires_signature()\ndef data():\n    """\n    http://..../[app]/default/data/tables\n    http://..../[app]/default/data/create/[table]\n    http://..../[app]/default/data/read/[table]/[id]\n    http://..../[app]/default/data/update/[table]/[id]\n    http://..../[app]/default/data/delete/[table]/[id]\n    http://..../[app]/default/data/select/[table]\n    http://..../[app]/default/data/search/[table]\n    but URLs must be signed, i.e. linked with\n      A(\'table\',_href=URL(\'data/tables\',user_signature=True))\n    or with the signed load operator\n      LOAD(\'default\',\'data.load\',args=\'tables\',ajax=True,user_signature=True)\n    """\n    return dict(form=crud())\n\nresponse._vars=response._caller(irfan)\n'
p7
sS'snapshot'
p8
(dp9
sS'traceback'
p10
S'Traceback (most recent call last):\n  File "/home/irfan/wep2py/gluon/restricted.py", line 217, in restricted\n    exec ccode in environment\n  File "/home/irfan/wep2py/applications/welcome/controllers/default.py", line 108, in <module>\n  File "/home/irfan/wep2py/gluon/globals.py", line 372, in <lambda>\n    self._caller = lambda f: f()\n  File "/home/irfan/wep2py/applications/welcome/controllers/default.py", line 48, in irfan\n    if form.process().accepted:\nNameError: global name \'form\' is not defined\n'
p11
s.