(dp1
S'output'
p2
S"<type 'exceptions.TypeError'> 'NoneType' object does not support item assignment"
p3
sS'layer'
p4
S'/home/irfan/wep2py/applications/deneme/controllers/default.py'
p5
sS'code'
p6
S'# -*- coding: utf-8 -*-\n# this file is released under public domain and you can use without limitations\n\n#########################################################################\n## This is a sample controller\n## - index is the default action of any application\n## - user is required for authentication and authorization\n## - download is for downloading files uploaded in the db (does streaming)\n## - call exposes all registered services (none by default)\n#########################################################################\n\n\ndef index():\n    #form=FORM(\'Ad\xc4\xb1:\',\n    #         INPUT(_name=\'adi\',requires=IS_NOT_EMPTY()),\n    #         \'Soyad\xc4\xb1:\',\n    #         INPUT(_name=\'soyadi\', requires=IS_NOT_EMPTY()),\n    #         INPUT(_type=\'submit\',_value=\'G\xc3\x96NDER\'),)\n\n#formu process etmeye yarayan kodlar bu sayede hata durumlar\xc4\xb1 g\xc3\xb6zetlenebilir.\n    ### Veri Update \xc4\xb0\xc5\x9flemleri ###\n    kayit=None\n    if request.vars.duzenle:\n        kayit=db.ogrenciler(request.vars.duzenle)\n    #### -------- ######\n\n    form=SQLFORM.grid(db.ogrenciler)\n    form.element(_type=\'submit\')[\'_value\']=\'G\xc3\x96NDER\'\n    \n    \n###   ------   ####\n\n    return {\'form\':form}\n\ndef user():\n    """\n    exposes:\n    http://..../[app]/default/user/login\n    http://..../[app]/default/user/logout\n    http://..../[app]/default/user/register\n    http://..../[app]/default/user/profile\n    http://..../[app]/default/user/retrieve_password\n    http://..../[app]/default/user/change_password\n    http://..../[app]/default/user/manage_users (requires membership in\n    use @auth.requires_login()\n        @auth.requires_membership(\'group name\')\n        @auth.requires_permission(\'read\',\'table name\',record_id)\n    to decorate functions that need access control\n    """\n    return dict(form=auth())\n\n@cache.action()\ndef download():\n    """\n    allows downloading of uploaded files\n    http://..../[app]/default/download/[filename]\n    """\n    return response.download(request, db)\n\n\ndef call():\n    """\n    exposes services. for example:\n    http://..../[app]/default/call/jsonrpc\n    decorate with @services.jsonrpc the functions to expose\n    supports xml, json, xmlrpc, jsonrpc, amfrpc, rss, csv\n    """\n    return service()\n\n\n@auth.requires_signature()\ndef data():\n    """\n    http://..../[app]/default/data/tables\n    http://..../[app]/default/data/create/[table]\n    http://..../[app]/default/data/read/[table]/[id]\n    http://..../[app]/default/data/update/[table]/[id]\n    http://..../[app]/default/data/delete/[table]/[id]\n    http://..../[app]/default/data/select/[table]\n    http://..../[app]/default/data/search/[table]\n    but URLs must be signed, i.e. linked with\n      A(\'table\',_href=URL(\'data/tables\',user_signature=True))\n    or with the signed load operator\n      LOAD(\'default\',\'data.load\',args=\'tables\',ajax=True,user_signature=True)\n    """\n    return dict(form=crud())\n\nresponse._vars=response._caller(index)\n'
p7
sS'snapshot'
p8
(dp9
sS'traceback'
p10
S'Traceback (most recent call last):\n  File "/home/irfan/wep2py/gluon/restricted.py", line 217, in restricted\n    exec ccode in environment\n  File "/home/irfan/wep2py/applications/deneme/controllers/default.py", line 88, in <module>\n  File "/home/irfan/wep2py/gluon/globals.py", line 372, in <lambda>\n    self._caller = lambda f: f()\n  File "/home/irfan/wep2py/applications/deneme/controllers/default.py", line 28, in index\n    form.element(_type=\'submit\')[\'_value\']=\'G\xc3\x96NDER\'\nTypeError: \'NoneType\' object does not support item assignment\n'
p11
s.